ccopy_reg
_reconstructor
p0
(cgazebo_msgs.msg._ModelStates
ModelStates
p1
c__builtin__
object
p2
Ntp3
Rp4
(lp5
(lp6
S'ground_plane'
p7
aS'6_Cube_StorageE'
p8
aS'desk_brown'
p9
aS'human_female_1'
p10
aS'office_chair'
p11
aS'trash_bin'
p12
aS'human_female_1_1'
p13
aS'desk_brown_0'
p14
aS'desk_brown_1'
p15
aS'desk_brown_2'
p16
aS'office_chair_0'
p17
aS'office_chair_1'
p18
aS'office_chair_2'
p19
aS'vase_blue'
p20
aS'bookshelf_large'
p21
aS'pot_flower'
p22
aS'file_cabinet_large'
p23
aS'human_female_2'
p24
aS'human_female_4'
p25
aS'trash_bin_0'
p26
aS'side_table_set_2'
p27
aS'bookshelf'
p28
aS'desk_yellow'
p29
aS'chair_1'
p30
aS'computer_case'
p31
aS'computer_case_0'
p32
aS'side_table_1'
p33
aS'trash_bin_1'
p34
aS'desk_yellow_0'
p35
aS'chair_1_0'
p36
aS'side_table_set_1'
p37
aS'trash_bin_2'
p38
aS'bookshelf_large_0'
p39
aS'desk_drawer'
p40
aS'desk_drawer_0'
p41
aS'chair_2'
p42
aS'chair_2_0'
p43
aS'bookshelf_0'
p44
aS'bookshelf_1'
p45
aS'vase_blue_0'
p46
aS'table_conference_2'
p47
aS'chair_3'
p48
aS'chair_3_0'
p49
aS'chair_3_1'
p50
aS'sofa_set_2'
p51
aS'sofa_set_2_0'
p52
aS'bookshelf_large_1'
p53
aS'bookshelf_large_2'
p54
aS'Wall_Cabinet_36x15W'
p55
aS'Wall_Cabinet_36x15W_0'
p56
aS'Wall_Cabinet_36x15W_1'
p57
aS'sofa_set_1'
p58
aS'sofa_set_3'
p59
aS'sofa_set_3_0'
p60
aS'sofa_set_3_1'
p61
aS'sofa_set_3_2'
p62
aS'table_dining'
p63
aS'table_dining_2'
p64
aS'table_dining_3'
p65
aS'table_dining_4'
p66
aS'chair_3_7'
p67
aS'chair_3_8'
p68
aS'chair_3_11'
p69
aS'chair_3_14'
p70
aS'side_table_set_1_0'
p71
aS'side_table_set_1_1'
p72
aS'sofa_set_1_0'
p73
aS'sofa_set_1_1'
p74
aS'Wall_Cabinet_24x15M'
p75
aS'Wall_Cabinet_24x15M_0'
p76
aS'desk_brown_3'
p77
aS'desk_brown_4'
p78
aS'computer_case_1'
p79
aS'computer_case_2'
p80
aS'trash_bin_3'
p81
aS'human_female_3'
p82
aS'office_chair_3'
p83
aS'office_chair_4'
p84
aS'desk_brown_5'
p85
aS'office_chair_5'
p86
aS'pot_flower_1'
p87
aS'side_table_3'
p88
aS'6_Cube_StorageE_0'
p89
aS'Floor_room'
p90
aS'cube_20k_clone'
p91
aS'vase_large_2'
p92
aS'side_table_set_2_0'
p93
aS'side_table_set_2_1'
p94
aS'side_table_set_2_2'
p95
aS'side_table_set_2_3'
p96
aS'bookshelf_large_3'
p97
aS'bookshelf_large_4'
p98
aS'sofa_set_2_1'
p99
aS'sofa_set_1_2'
p100
aS'sofa_set_1_3'
p101
aS'sofa_set_1_4'
p102
aS'sofa_set_1_5'
p103
aS'Box_36x15W'
p104
aS'vase_large_2_0'
p105
aS'large_wall'
p106
aS'room_wall'
p107
aS'room_wall_0'
p108
aS'room_wall_1'
p109
aS'room_wall_2'
p110
aS'room_wall_3'
p111
aS'room_wall_4'
p112
aS'room_wall_5'
p113
aS'room_wall_6'
p114
aS'room_wall_7'
p115
aS'room_wall_8'
p116
aS'room_wall_9'
p117
aS'room_wall_10'
p118
aS'robot1'
p119
aa(lp120
g0
(cgeometry_msgs.msg._Pose
Pose
p121
g2
Ntp122
Rp123
(lp124
g0
(cgeometry_msgs.msg._Point
Point
p125
g2
Ntp126
Rp127
(lp128
F0.0
aF0.0
aF0.0
abag0
(cgeometry_msgs.msg._Quaternion
Quaternion
p129
g2
Ntp130
Rp131
(lp132
F0.0
aF0.0
aF0.0
aF1.0
ababag0
(g121
g2
Ntp133
Rp134
(lp135
g0
(g125
g2
Ntp136
Rp137
(lp138
F0.564082
aF0.506841
aF1.734723475976807e-18
abag0
(g129
g2
Ntp139
Rp140
(lp141
F0.0
aF0.0
aF0.9999893678514359
aF0.004611310452114577
ababag0
(g121
g2
Ntp142
Rp143
(lp144
g0
(g125
g2
Ntp145
Rp146
(lp147
F2.532287
aF0.5348299999999999
aF0.0
abag0
(g129
g2
Ntp148
Rp149
(lp150
F0.0
aF0.0
aF0.0
aF1.0
ababag0
(g121
g2
Ntp151
Rp152
(lp153
g0
(g125
g2
Ntp154
Rp155
(lp156
F0.544883
aF1.47348
aF0.0
abag0
(g129
g2
Ntp157
Rp158
(lp159
F0.0
aF0.0
aF0.9367776186765454
aF0.34992526794545853
ababag0
(g121
g2
Ntp160
Rp161
(lp162
g0
(g125
g2
Ntp163
Rp164
(lp165
F2.45532
aF1.533161
aF0.0
abag0
(g129
g2
Ntp166
Rp167
(lp168
F0.0
aF0.0
aF0.0
aF1.0
ababag0
(g121
g2
Ntp169
Rp170
(lp171
g0
(g125
g2
Ntp172
Rp173
(lp174
F3.62609
aF1.45162
aF0.0
abag0
(g129
g2
Ntp175
Rp176
(lp177
F0.0
aF0.0
aF0.0
aF1.0
ababag0
(g121
g2
Ntp178
Rp179
(lp180
g0
(g125
g2
Ntp181
Rp182
(lp183
F10.3814
aF1.54628
aF0.0
abag0
(g129
g2
Ntp184
Rp185
(lp186
F0.0
aF0.0
aF-0.6968958327058967
aF0.7171723630740067
ababag0
(g121
g2
Ntp187
Rp188
(lp189
g0
(g125
g2
Ntp190
Rp191
(lp192
F8.662737
aF0.547449
aF0.0
abag0
(g129
g2
Ntp193
Rp194
(lp195
F0.0
aF0.0
aF0.0
aF1.0
ababag0
(g121
g2
Ntp196
Rp197
(lp198
g0
(g125
g2
Ntp199
Rp200
(lp201
F14.599697
aF0.602584
aF0.0
abag0
(g129
g2
Ntp202
Rp203
(lp204
F0.0
aF0.0
aF0.0
aF1.0
ababag0
(g121
g2
Ntp205
Rp206
(lp207
g0
(g125
g2
Ntp208
Rp209
(lp210
F20.465997
aF0.599574
aF0.0
abag0
(g129
g2
Ntp211
Rp212
(lp213
F0.0
aF0.0
aF0.0
aF1.0
ababag0
(g121
g2
Ntp214
Rp215
(lp216
g0
(g125
g2
Ntp217
Rp218
(lp219
F8.48282
aF1.481161
aF0.0
abag0
(g129
g2
Ntp220
Rp221
(lp222
F0.0
aF0.0
aF0.0
aF1.0
ababag0
(g121
g2
Ntp223
Rp224
(lp225
g0
(g125
g2
Ntp226
Rp227
(lp228
F14.57909
aF1.569821
aF0.0
abag0
(g129
g2
Ntp229
Rp230
(lp231
F0.0
aF0.0
aF0.0
aF1.0
ababag0
(g121
g2
Ntp232
Rp233
(lp234
g0
(g125
g2
Ntp235
Rp236
(lp237
F20.40409
aF1.3580109999999999
aF0.0
abag0
(g129
g2
Ntp238
Rp239
(lp240
F0.0
aF0.0
aF0.0
aF1.0
ababag0
(g121
g2
Ntp241
Rp242
(lp243
g0
(g125
g2
Ntp244
Rp245
(lp246
F4.453799
aF2.500271
aF0.0
abag0
(g129
g2
Ntp247
Rp248
(lp249
F0.0
aF0.0
aF0.0
aF1.0
ababag0
(g121
g2
Ntp250
Rp251
(lp252
g0
(g125
g2
Ntp253
Rp254
(lp255
F6.455150926027758
aF1.0383113185211867
aF0.0
abag0
(g129
g2
Ntp256
Rp257
(lp258
F0.0
aF0.0
aF0.7014643051071596
aF0.7127045872312945
ababag0
(g121
g2
Ntp259
Rp260
(lp261
g0
(g125
g2
Ntp262
Rp263
(lp264
F16.3648
aF1.60536
aF0.0
abag0
(g129
g2
Ntp265
Rp266
(lp267
F0.0
aF0.0
aF0.0
aF1.0
ababag0
(g121
g2
Ntp268
Rp269
(lp270
g0
(g125
g2
Ntp271
Rp272
(lp273
F18.5865
aF0.577611
aF0.0
abag0
(g129
g2
Ntp274
Rp275
(lp276
F0.0
aF0.0
aF0.6983967783614128
aF0.7157107935293414
ababag0
(g121
g2
Ntp277
Rp278
(lp279
g0
(g125
g2
Ntp280
Rp281
(lp282
F22.3281
aF2.34811
aF0.0
abag0
(g129
g2
Ntp283
Rp284
(lp285
F0.0
aF0.0
aF0.0
aF1.0
ababag0
(g121
g2
Ntp286
Rp287
(lp288
g0
(g125
g2
Ntp289
Rp290
(lp291
F12.7287
aF1.5054
aF0.0
abag0
(g129
g2
Ntp292
Rp293
(lp294
F0.0
aF0.0
aF0.0
aF1.0
ababag0
(g121
g2
Ntp295
Rp296
(lp297
g0
(g125
g2
Ntp298
Rp299
(lp300
F7.4417
aF1.3836
aF0.0
abag0
(g129
g2
Ntp301
Rp302
(lp303
F0.0
aF0.0
aF0.0
aF1.0
ababag0
(g121
g2
Ntp304
Rp305
(lp306
g0
(g125
g2
Ntp307
Rp308
(lp309
F22.162575999999998
aF0.435718
aF0.0
abag0
(g129
g2
Ntp310
Rp311
(lp312
F0.0
aF0.0
aF0.0
aF1.0
ababag0
(g121
g2
Ntp313
Rp314
(lp315
g0
(g125
g2
Ntp316
Rp317
(lp318
F2.657
aF10.8309
aF0.0
abag0
(g129
g2
Ntp319
Rp320
(lp321
F0.0
aF0.0
aF0.0
aF1.0
ababag0
(g121
g2
Ntp322
Rp323
(lp324
g0
(g125
g2
Ntp325
Rp326
(lp327
F2.4944439999999997
aF6.666007
aF0.0
abag0
(g129
g2
Ntp328
Rp329
(lp330
F0.0
aF0.0
aF0.0
aF1.0
ababag0
(g121
g2
Ntp331
Rp332
(lp333
g0
(g125
g2
Ntp334
Rp335
(lp336
F2.5382922308396916
aF7.114066641794162
aF0.0
abag0
(g129
g2
Ntp337
Rp338
(lp339
F0.0
aF0.0
aF-0.7123914339385695
aF0.7017823343822134
ababag0
(g121
g2
Ntp340
Rp341
(lp342
g0
(g125
g2
Ntp343
Rp344
(lp345
F13.8258
aF0.462558
aF0.0
abag0
(g129
g2
Ntp346
Rp347
(lp348
F0.0
aF0.0
aF0.0
aF1.0
ababag0
(g121
g2
Ntp349
Rp350
(lp351
g0
(g125
g2
Ntp352
Rp353
(lp354
F3.46743
aF6.33893
aF0.0
abag0
(g129
g2
Ntp355
Rp356
(lp357
F0.0
aF0.0
aF0.0
aF1.0
ababag0
(g121
g2
Ntp358
Rp359
(lp360
g0
(g125
g2
Ntp361
Rp362
(lp363
F0.5706
aF7.393588
aF0.0
abag0
(g129
g2
Ntp364
Rp365
(lp366
F0.0
aF0.0
aF0.0
aF1.0
ababag0
(g121
g2
Ntp367
Rp368
(lp369
g0
(g125
g2
Ntp370
Rp371
(lp372
F0.558844
aF10.3243
aF0.0
abag0
(g129
g2
Ntp373
Rp374
(lp375
F0.0
aF0.0
aF0.0
aF1.0
ababag0
(g121
g2
Ntp376
Rp377
(lp378
g0
(g125
g2
Ntp379
Rp380
(lp381
F0.6042293529039682
aF14.690345354641812
aF0.0
abag0
(g129
g2
Ntp382
Rp383
(lp384
F0.0
aF0.0
aF-0.7002124289351285
aF0.7139345588811118
ababag0
(g121
g2
Ntp385
Rp386
(lp387
g0
(g125
g2
Ntp388
Rp389
(lp390
F1.384408253963488
aF14.595812333488546
aF-1.0842021724855044e-19
abag0
(g129
g2
Ntp391
Rp392
(lp393
F0.0
aF0.0
aF-0.9999999026153317
aF0.00044132678057051927
ababag0
(g121
g2
Ntp394
Rp395
(lp396
g0
(g125
g2
Ntp397
Rp398
(lp399
F0.5628650000000001
aF13.395916
aF0.0
abag0
(g129
g2
Ntp400
Rp401
(lp402
F0.0
aF0.0
aF0.0
aF1.0
ababag0
(g121
g2
Ntp403
Rp404
(lp405
g0
(g125
g2
Ntp406
Rp407
(lp408
F0.721576
aF16.0
aF0.0
abag0
(g129
g2
Ntp409
Rp410
(lp411
F0.0
aF0.0
aF0.0
aF1.0
ababag0
(g121
g2
Ntp412
Rp413
(lp414
g0
(g125
g2
Ntp415
Rp416
(lp417
F2.28081867126638
aF12.545180991096872
aF0.0
abag0
(g129
g2
Ntp418
Rp419
(lp420
F0.0
aF0.0
aF0.9999662461768882
aF0.008216234350541427
ababag0
(g121
g2
Ntp421
Rp422
(lp423
g0
(g125
g2
Ntp424
Rp425
(lp426
F0.43079999999999785
aF20.5415
aF0.0
abag0
(g129
g2
Ntp427
Rp428
(lp429
F0.0
aF0.0
aF0.0
aF1.0
ababag0
(g121
g2
Ntp430
Rp431
(lp432
g0
(g125
g2
Ntp433
Rp434
(lp435
F2.5828990065221547
aF22.568329159217775
aF0.0
abag0
(g129
g2
Ntp436
Rp437
(lp438
F0.0
aF0.0
aF-0.704288207038938
aF0.7099141648297194
ababag0
(g121
g2
Ntp439
Rp440
(lp441
g0
(g125
g2
Ntp442
Rp443
(lp444
F1.1753503348338037
aF20.526762441722713
aF0.0
abag0
(g129
g2
Ntp445
Rp446
(lp447
F0.0
aF0.0
aF-0.7218106734369266
aF0.6920905661201651
ababag0
(g121
g2
Ntp448
Rp449
(lp450
g0
(g125
g2
Ntp451
Rp452
(lp453
F2.497770291247113
aF21.977159523482367
aF0.0
abag0
(g129
g2
Ntp454
Rp455
(lp456
F0.0
aF0.0
aF0.9999712239608917
aF0.007586254026611518
ababag0
(g121
g2
Ntp457
Rp458
(lp459
g0
(g125
g2
Ntp460
Rp461
(lp462
F0.393452
aF18.8577
aF0.0
abag0
(g129
g2
Ntp463
Rp464
(lp465
F0.0
aF0.0
aF0.7060784932628231
aF0.7081335759245577
ababag0
(g121
g2
Ntp466
Rp467
(lp468
g0
(g125
g2
Ntp469
Rp470
(lp471
F0.595698
aF22.7518
aF0.0
abag0
(g129
g2
Ntp472
Rp473
(lp474
F0.0
aF0.0
aF0.012046208641123825
aF0.9999274417963409
ababag0
(g121
g2
Ntp475
Rp476
(lp477
g0
(g125
g2
Ntp478
Rp479
(lp480
F4.382999
aF22.497301
aF0.0
abag0
(g129
g2
Ntp481
Rp482
(lp483
F0.0
aF0.0
aF0.0
aF1.0
ababag0
(g121
g2
Ntp484
Rp485
(lp486
g0
(g125
g2
Ntp487
Rp488
(lp489
F21.3333
aF8.54181
aF0.0
abag0
(g129
g2
Ntp490
Rp491
(lp492
F0.0
aF0.0
aF-0.7107332453000837
aF0.7034616222831286
ababag0
(g121
g2
Ntp493
Rp494
(lp495
g0
(g125
g2
Ntp496
Rp497
(lp498
F20.36490669246739
aF9.494009722151139
aF0.0
abag0
(g129
g2
Ntp499
Rp500
(lp501
F0.0
aF0.0
aF0.7016246458821185
aF0.7125467397236422
ababag0
(g121
g2
Ntp502
Rp503
(lp504
g0
(g125
g2
Ntp505
Rp506
(lp507
F20.349335950393574
aF8.633407697689282
aF0.0
abag0
(g129
g2
Ntp508
Rp509
(lp510
F0.0
aF0.0
aF0.7092085863949429
aF0.7049987099163282
ababag0
(g121
g2
Ntp511
Rp512
(lp513
g0
(g125
g2
Ntp514
Rp515
(lp516
F20.32900658126132
aF7.672541390229073
aF0.0
abag0
(g129
g2
Ntp517
Rp518
(lp519
F0.0
aF0.0
aF0.7127667855174367
aF0.7014011045494158
ababag0
(g121
g2
Ntp520
Rp521
(lp522
g0
(g125
g2
Ntp523
Rp524
(lp525
F14.270691999999999
aF21.90679
aF0.0
abag0
(g129
g2
Ntp526
Rp527
(lp528
F0.0
aF0.0
aF0.0
aF1.0
ababag0
(g121
g2
Ntp529
Rp530
(lp531
g0
(g125
g2
Ntp532
Rp533
(lp534
F14.395938224896199
aF18.60987305763369
aF0.0
abag0
(g129
g2
Ntp535
Rp536
(lp537
F0.0
aF0.0
aF0.9999981253198574
aF0.0019363255848987495
ababag0
(g121
g2
Ntp538
Rp539
(lp540
g0
(g125
g2
Ntp541
Rp542
(lp543
F15.946119900024275
aF19.398278814237493
aF0.0
abag0
(g129
g2
Ntp544
Rp545
(lp546
F0.0
aF0.0
aF-0.7103110404200581
aF0.703887935581634
ababag0
(g121
g2
Ntp547
Rp548
(lp549
g0
(g125
g2
Ntp550
Rp551
(lp552
F15.958220964464637
aF21.04297899383808
aF0.0
abag0
(g129
g2
Ntp553
Rp554
(lp555
F0.0
aF0.0
aF-0.7072106027206049
aF0.7070029444065696
ababag0
(g121
g2
Ntp556
Rp557
(lp558
g0
(g125
g2
Ntp559
Rp560
(lp561
F7.91102
aF6.80902
aF0.327751
abag0
(g129
g2
Ntp562
Rp563
(lp564
F0.0
aF0.0
aF0.0
aF1.0
ababag0
(g121
g2
Ntp565
Rp566
(lp567
g0
(g125
g2
Ntp568
Rp569
(lp570
F8.93468
aF6.79978
aF0.323467
abag0
(g129
g2
Ntp571
Rp572
(lp573
F0.0
aF0.0
aF0.0
aF1.0
ababag0
(g121
g2
Ntp574
Rp575
(lp576
g0
(g125
g2
Ntp577
Rp578
(lp579
F9.96545
aF6.79431
aF0.32178999999999996
abag0
(g129
g2
Ntp580
Rp581
(lp582
F0.0
aF0.0
aF0.0
aF1.0
ababag0
(g121
g2
Ntp583
Rp584
(lp585
g0
(g125
g2
Ntp586
Rp587
(lp588
F6.5212282536274655
aF8.492545445940536
aF3.469446951953614e-18
abag0
(g129
g2
Ntp589
Rp590
(lp591
F0.0
aF0.0
aF0.7115382427871252
aF0.7026473717672401
ababag0
(g121
g2
Ntp592
Rp593
(lp594
g0
(g125
g2
Ntp595
Rp596
(lp597
F14.54295
aF10.262414999999999
aF0.0
abag0
(g129
g2
Ntp598
Rp599
(lp600
F0.0
aF0.0
aF0.0
aF1.0
ababag0
(g121
g2
Ntp601
Rp602
(lp603
g0
(g125
g2
Ntp604
Rp605
(lp606
F12.970684367041502
aF8.668433942908186
aF-6.938893903907228e-18
abag0
(g129
g2
Ntp607
Rp608
(lp609
F0.0
aF0.0
aF0.707083330734487
aF0.7071302308609242
ababag0
(g121
g2
Ntp610
Rp611
(lp612
g0
(g125
g2
Ntp613
Rp614
(lp615
F16.284955790915987
aF8.697934612265687
aF0.0
abag0
(g129
g2
Ntp616
Rp617
(lp618
F0.0
aF0.0
aF-0.7050438660709502
aF0.709163695429855
ababag0
(g121
g2
Ntp619
Rp620
(lp621
g0
(g125
g2
Ntp622
Rp623
(lp624
F14.637886294231858
aF7.0752166519749515
aF0.0
abag0
(g129
g2
Ntp625
Rp626
(lp627
F0.0
aF0.0
aF-0.9999999962738423
aF8.632679478934622e-05
ababag0
(g121
g2
Ntp628
Rp629
(lp630
g0
(g125
g2
Ntp631
Rp632
(lp633
F22.3224
aF13.3522
aF0.0
abag0
(g129
g2
Ntp634
Rp635
(lp636
F0.0
aF0.0
aF0.0
aF1.0
ababag0
(g121
g2
Ntp637
Rp638
(lp639
g0
(g125
g2
Ntp640
Rp641
(lp642
F20.905
aF13.3222
aF0.0
abag0
(g129
g2
Ntp643
Rp644
(lp645
F0.0
aF0.0
aF0.0
aF1.0
ababag0
(g121
g2
Ntp646
Rp647
(lp648
g0
(g125
g2
Ntp649
Rp650
(lp651
F20.9131
aF14.5508
aF0.0
abag0
(g129
g2
Ntp652
Rp653
(lp654
F0.0
aF0.0
aF0.0
aF1.0
ababag0
(g121
g2
Ntp655
Rp656
(lp657
g0
(g125
g2
Ntp658
Rp659
(lp660
F20.8988
aF15.866
aF0.0
abag0
(g129
g2
Ntp661
Rp662
(lp663
F0.0
aF0.0
aF0.0
aF1.0
ababag0
(g121
g2
Ntp664
Rp665
(lp666
g0
(g125
g2
Ntp667
Rp668
(lp669
F22.360957
aF13.907587
aF0.0
abag0
(g129
g2
Ntp670
Rp671
(lp672
F0.0
aF0.0
aF0.0
aF1.0
ababag0
(g121
g2
Ntp673
Rp674
(lp675
g0
(g125
g2
Ntp676
Rp677
(lp678
F20.944957000000002
aF13.937387000000001
aF0.0
abag0
(g129
g2
Ntp679
Rp680
(lp681
F0.0
aF0.0
aF0.0
aF1.0
ababag0
(g121
g2
Ntp682
Rp683
(lp684
g0
(g125
g2
Ntp685
Rp686
(lp687
F20.953357
aF15.234287
aF0.0
abag0
(g129
g2
Ntp688
Rp689
(lp690
F0.0
aF0.0
aF0.0
aF1.0
ababag0
(g121
g2
Ntp691
Rp692
(lp693
g0
(g125
g2
Ntp694
Rp695
(lp696
F20.886857
aF16.451687
aF0.0
abag0
(g129
g2
Ntp697
Rp698
(lp699
F0.0
aF0.0
aF0.0
aF1.0
ababag0
(g121
g2
Ntp700
Rp701
(lp702
g0
(g125
g2
Ntp703
Rp704
(lp705
F12.892542
aF21.704416
aF0.0
abag0
(g129
g2
Ntp706
Rp707
(lp708
F0.0
aF0.0
aF0.0
aF1.0
ababag0
(g121
g2
Ntp709
Rp710
(lp711
g0
(g125
g2
Ntp712
Rp713
(lp714
F12.659942000000001
aF18.534016
aF0.0
abag0
(g129
g2
Ntp715
Rp716
(lp717
F0.0
aF0.0
aF0.0
aF1.0
ababag0
(g121
g2
Ntp718
Rp719
(lp720
g0
(g125
g2
Ntp721
Rp722
(lp723
F22.27487843085455
aF21.35081310882586
aF0.0
abag0
(g129
g2
Ntp724
Rp725
(lp726
F0.0
aF0.0
aF-0.7053097528771072
aF0.7088992541232033
ababag0
(g121
g2
Ntp727
Rp728
(lp729
g0
(g125
g2
Ntp730
Rp731
(lp732
F20.362378208024047
aF21.318422306961804
aF0.0
abag0
(g129
g2
Ntp733
Rp734
(lp735
F0.0
aF0.0
aF-0.7024186991936837
aF0.7117639854776675
ababag0
(g121
g2
Ntp736
Rp737
(lp738
g0
(g125
g2
Ntp739
Rp740
(lp741
F18.3419
aF21.4172
aF0.0
abag0
(g129
g2
Ntp742
Rp743
(lp744
F0.0
aF0.0
aF-0.705674742443955
aF0.7085359256076278
ababag0
(g121
g2
Ntp745
Rp746
(lp747
g0
(g125
g2
Ntp748
Rp749
(lp750
F18.324
aF21.4327
aF0.389843
abag0
(g129
g2
Ntp751
Rp752
(lp753
F0.0
aF0.0
aF-0.7015890176681163
aF0.7125818200652383
ababag0
(g121
g2
Ntp754
Rp755
(lp756
g0
(g125
g2
Ntp757
Rp758
(lp759
F9.834697
aF12.610204
aF0.0
abag0
(g129
g2
Ntp760
Rp761
(lp762
F0.0
aF0.0
aF0.0
aF1.0
ababag0
(g121
g2
Ntp763
Rp764
(lp765
g0
(g125
g2
Ntp766
Rp767
(lp768
F7.0616270000000005
aF12.541404
aF0.0
abag0
(g129
g2
Ntp769
Rp770
(lp771
F0.0
aF0.0
aF0.0
aF1.0
ababag0
(g121
g2
Ntp772
Rp773
(lp774
g0
(g125
g2
Ntp775
Rp776
(lp777
F9.06665
aF12.448
aF0.0
abag0
(g129
g2
Ntp778
Rp779
(lp780
F0.0
aF0.0
aF0.0
aF1.0
ababag0
(g121
g2
Ntp781
Rp782
(lp783
g0
(g125
g2
Ntp784
Rp785
(lp786
F6.32217
aF12.427
aF0.0
abag0
(g129
g2
Ntp787
Rp788
(lp789
F0.0
aF0.0
aF0.0
aF1.0
ababag0
(g121
g2
Ntp790
Rp791
(lp792
g0
(g125
g2
Ntp793
Rp794
(lp795
F8.39533
aF12.4878
aF0.0
abag0
(g129
g2
Ntp796
Rp797
(lp798
F0.0
aF0.0
aF0.0
aF1.0
ababag0
(g121
g2
Ntp799
Rp800
(lp801
g0
(g125
g2
Ntp802
Rp803
(lp804
F6.76157
aF14.2046
aF0.0
abag0
(g129
g2
Ntp805
Rp806
(lp807
F0.0
aF0.0
aF0.0
aF1.0
ababag0
(g121
g2
Ntp808
Rp809
(lp810
g0
(g125
g2
Ntp811
Rp812
(lp813
F9.7257
aF13.198241
aF0.0
abag0
(g129
g2
Ntp814
Rp815
(lp816
F0.0
aF0.0
aF0.0
aF1.0
ababag0
(g121
g2
Ntp817
Rp818
(lp819
g0
(g125
g2
Ntp820
Rp821
(lp822
F6.974150000000001
aF13.210041
aF0.0
abag0
(g129
g2
Ntp823
Rp824
(lp825
F0.0
aF0.0
aF0.0
aF1.0
ababag0
(g121
g2
Ntp826
Rp827
(lp828
g0
(g125
g2
Ntp829
Rp830
(lp831
F14.691197
aF12.592504
aF0.0
abag0
(g129
g2
Ntp832
Rp833
(lp834
F0.0
aF0.0
aF0.0
aF1.0
ababag0
(g121
g2
Ntp835
Rp836
(lp837
g0
(g125
g2
Ntp838
Rp839
(lp840
F14.47479
aF13.244240999999999
aF0.0
abag0
(g129
g2
Ntp841
Rp842
(lp843
F0.0
aF0.0
aF0.0
aF1.0
ababag0
(g121
g2
Ntp844
Rp845
(lp846
g0
(g125
g2
Ntp847
Rp848
(lp849
F12.7726
aF12.6141
aF0.0
abag0
(g129
g2
Ntp850
Rp851
(lp852
F0.0
aF0.0
aF0.0
aF1.0
ababag0
(g121
g2
Ntp853
Rp854
(lp855
g0
(g125
g2
Ntp856
Rp857
(lp858
F15.9575
aF12.8891
aF0.0
abag0
(g129
g2
Ntp859
Rp860
(lp861
F0.0
aF0.0
aF0.0
aF1.0
ababag0
(g121
g2
Ntp862
Rp863
(lp864
g0
(g125
g2
Ntp865
Rp866
(lp867
F16.7429
aF13.6009
aF-1.734723475976807e-18
abag0
(g129
g2
Ntp868
Rp869
(lp870
F0.0
aF0.0
aF0.7211147580116811
aF0.6928156362104962
ababag0
(g121
g2
Ntp871
Rp872
(lp873
g0
(g125
g2
Ntp874
Rp875
(lp876
F11.5258
aF11.5627
aF0.0
abag0
(g129
g2
Ntp877
Rp878
(lp879
F0.0
aF0.0
aF0.0
aF1.0
ababag0
(g121
g2
Ntp880
Rp881
(lp882
g0
(g125
g2
Ntp883
Rp884
(lp885
F8.32018
aF10.6931
aF0.04684900000000003
abag0
(g129
g2
Ntp886
Rp887
(lp888
F0.0
aF0.0
aF0.0
aF1.0
ababag0
(g121
g2
Ntp889
Rp890
(lp891
g0
(g125
g2
Ntp892
Rp893
(lp894
F6.57346
aF10.1345
aF0.0
abag0
(g129
g2
Ntp895
Rp896
(lp897
F0.0
aF0.0
aF0.0
aF1.0
ababag0
(g121
g2
Ntp898
Rp899
(lp900
g0
(g125
g2
Ntp901
Rp902
(lp903
F12.870676000000001
aF6.988332
aF0.0
abag0
(g129
g2
Ntp904
Rp905
(lp906
F0.0
aF0.0
aF0.0
aF1.0
ababag0
(g121
g2
Ntp907
Rp908
(lp909
g0
(g125
g2
Ntp910
Rp911
(lp912
F12.982176
aF10.478702
aF0.0
abag0
(g129
g2
Ntp913
Rp914
(lp915
F0.0
aF0.0
aF0.0
aF1.0
ababag0
(g121
g2
Ntp916
Rp917
(lp918
g0
(g125
g2
Ntp919
Rp920
(lp921
F16.272976
aF10.385102
aF0.0
abag0
(g129
g2
Ntp922
Rp923
(lp924
F0.0
aF0.0
aF0.0
aF1.0
ababag0
(g121
g2
Ntp925
Rp926
(lp927
g0
(g125
g2
Ntp928
Rp929
(lp930
F16.299276
aF6.984012
aF0.0
abag0
(g129
g2
Ntp931
Rp932
(lp933
F0.0
aF0.0
aF0.0
aF1.0
ababag0
(g121
g2
Ntp934
Rp935
(lp936
g0
(g125
g2
Ntp937
Rp938
(lp939
F7.474901
aF22.144721
aF0.0
abag0
(g129
g2
Ntp940
Rp941
(lp942
F0.0
aF0.0
aF0.0
aF1.0
ababag0
(g121
g2
Ntp943
Rp944
(lp945
g0
(g125
g2
Ntp946
Rp947
(lp948
F9.743831
aF22.142221
aF0.0
abag0
(g129
g2
Ntp949
Rp950
(lp951
F0.0
aF0.0
aF0.0
aF1.0
ababag0
(g121
g2
Ntp952
Rp953
(lp954
g0
(g125
g2
Ntp955
Rp956
(lp957
F12.618781041003697
aF20.10316015635828
aF0.0
abag0
(g129
g2
Ntp958
Rp959
(lp960
F0.0
aF0.0
aF0.7072600911940068
aF0.7069534379322624
ababag0
(g121
g2
Ntp961
Rp962
(lp963
g0
(g125
g2
Ntp964
Rp965
(lp966
F6.527554022697165
aF20.227161434964774
aF3.469446951953614e-18
abag0
(g129
g2
Ntp967
Rp968
(lp969
F0.0
aF0.0
aF0.7075852149358707
aF0.7066280235061144
ababag0
(g121
g2
Ntp970
Rp971
(lp972
g0
(g125
g2
Ntp973
Rp974
(lp975
F8.473753255129232
aF18.525874153378798
aF0.0
abag0
(g129
g2
Ntp976
Rp977
(lp978
F0.0
aF0.0
aF-0.9999708433982265
aF0.007636252578305797
ababag0
(g121
g2
Ntp979
Rp980
(lp981
g0
(g125
g2
Ntp982
Rp983
(lp984
F10.47522722429918
aF20.27725322067224
aF3.469446951953614e-18
abag0
(g129
g2
Ntp985
Rp986
(lp987
F0.0
aF0.0
aF-0.705079323374402
aF0.7091284423501115
ababag0
(g121
g2
Ntp988
Rp989
(lp990
g0
(g125
g2
Ntp991
Rp992
(lp993
F10.412095804688626
aF8.540860245654406
aF3.469446951953614e-18
abag0
(g129
g2
Ntp994
Rp995
(lp996
F0.0
aF0.0
aF0.706704914886563
aF0.7075084192256484
ababag0
(g121
g2
Ntp997
Rp998
(lp999
g0
(g125
g2
Ntp1000
Rp1001
(lp1002
F6.79381
aF6.8189
aF0.308361
abag0
(g129
g2
Ntp1003
Rp1004
(lp1005
F0.0
aF0.0
aF0.0
aF1.0
ababag0
(g121
g2
Ntp1006
Rp1007
(lp1008
g0
(g125
g2
Ntp1009
Rp1010
(lp1011
F10.4281
aF10.1531
aF0.0
abag0
(g129
g2
Ntp1012
Rp1013
(lp1014
F0.0
aF0.0
aF0.0
aF1.0
ababag0
(g121
g2
Ntp1015
Rp1016
(lp1017
g0
(g125
g2
Ntp1018
Rp1019
(lp1020
F11.5252
aF11.525400000000001
aF0.0
abag0
(g129
g2
Ntp1021
Rp1022
(lp1023
F0.0
aF0.0
aF0.0
aF1.0
ababag0
(g121
g2
Ntp1024
Rp1025
(lp1026
g0
(g125
g2
Ntp1027
Rp1028
(lp1029
F2.52771
aF8.5227
aF0.0
abag0
(g129
g2
Ntp1030
Rp1031
(lp1032
F0.0
aF0.0
aF0.0
aF1.0
ababag0
(g121
g2
Ntp1033
Rp1034
(lp1035
g0
(g125
g2
Ntp1036
Rp1037
(lp1038
F2.526895108176899
aF14.59744498921424
aF0.0
abag0
(g129
g2
Ntp1039
Rp1040
(lp1041
F0.0
aF0.0
aF0.003061495217540099
aF0.9999953136125355
ababag0
(g121
g2
Ntp1042
Rp1043
(lp1044
g0
(g125
g2
Ntp1045
Rp1046
(lp1047
F2.5362127132392183
aF20.536508814332308
aF0.0
abag0
(g129
g2
Ntp1048
Rp1049
(lp1050
F0.0
aF0.0
aF-0.7076382100475005
aF0.7065749526276526
ababag0
(g121
g2
Ntp1051
Rp1052
(lp1053
g0
(g125
g2
Ntp1054
Rp1055
(lp1056
F20.496503617795977
aF20.509032817786142
aF0.0
abag0
(g129
g2
Ntp1057
Rp1058
(lp1059
F0.0
aF0.0
aF-0.706492630562258
aF0.7077203988590557
ababag0
(g121
g2
Ntp1060
Rp1061
(lp1062
g0
(g125
g2
Ntp1063
Rp1064
(lp1065
F20.529670366937925
aF14.524596879218755
aF0.0
abag0
(g129
g2
Ntp1066
Rp1067
(lp1068
F0.0
aF0.0
aF0.9999996749185676
aF0.0008063267075226642
ababag0
(g121
g2
Ntp1069
Rp1070
(lp1071
g0
(g125
g2
Ntp1072
Rp1073
(lp1074
F14.559999887396675
aF14.560964815703747
aF0.0
abag0
(g129
g2
Ntp1075
Rp1076
(lp1077
F0.0
aF0.0
aF0.7069984700159875
aF0.7072150757690712
ababag0
(g121
g2
Ntp1078
Rp1079
(lp1080
g0
(g125
g2
Ntp1081
Rp1082
(lp1083
F8.521264500593928
aF14.547993712108159
aF0.0
abag0
(g129
g2
Ntp1084
Rp1085
(lp1086
F0.0
aF0.0
aF0.7024649623688477
aF0.7117183267586507
ababag0
(g121
g2
Ntp1087
Rp1088
(lp1089
g0
(g125
g2
Ntp1090
Rp1091
(lp1092
F20.542617645022833
aF8.529707382248292
aF0.0
abag0
(g129
g2
Ntp1093
Rp1094
(lp1095
F0.0
aF0.0
aF-0.99999868565
aF0.0016213260845662797
ababag0
(g121
g2
Ntp1096
Rp1097
(lp1098
g0
(g125
g2
Ntp1099
Rp1100
(lp1101
F2.5552699448216627
aF2.532658820226219
aF0.0
abag0
(g129
g2
Ntp1102
Rp1103
(lp1104
F0.0
aF0.0
aF0.7063121388926633
aF0.7079005314681371
ababag0
(g121
g2
Ntp1105
Rp1106
(lp1107
g0
(g125
g2
Ntp1108
Rp1109
(lp1110
F8.542968531249377
aF2.5293048162338874
aF0.0
abag0
(g129
g2
Ntp1111
Rp1112
(lp1113
F0.0
aF0.0
aF0.7067155274333465
aF0.7074978185723308
ababag0
(g121
g2
Ntp1114
Rp1115
(lp1116
g0
(g125
g2
Ntp1117
Rp1118
(lp1119
F14.531186663959904
aF2.5244408008729096
aF0.0
abag0
(g129
g2
Ntp1120
Rp1121
(lp1122
F0.0
aF0.0
aF0.7082844298127621
aF0.7059271679747214
ababag0
(g121
g2
Ntp1123
Rp1124
(lp1125
g0
(g125
g2
Ntp1126
Rp1127
(lp1128
F20.510191613195264
aF2.5581948083015895
aF0.0
abag0
(g129
g2
Ntp1129
Rp1130
(lp1131
F0.0
aF0.0
aF0.7080408427928654
aF0.7061714840866692
ababag0
(g121
g2
Ntp1132
Rp1133
(lp1134
g0
(g125
g2
Ntp1135
Rp1136
(lp1137
F-0.9294384027584405
aF0.1884791321381928
aF-0.00113117927373646
abag0
(g129
g2
Ntp1138
Rp1139
(lp1140
F-0.0009265175203947808
aF-0.003888180267446843
aF-0.2468078832269535
aF0.9690561863981484
ababaa(lp1141
g0
(cgeometry_msgs.msg._Twist
Twist
p1142
g2
Ntp1143
Rp1144
(lp1145
g0
(cgeometry_msgs.msg._Vector3
Vector3
p1146
g2
Ntp1147
Rp1148
(lp1149
F0.0
aF0.0
aF0.0
abag0
(g1146
g2
Ntp1150
Rp1151
(lp1152
F0.0
aF0.0
aF0.0
ababag0
(g1142
g2
Ntp1153
Rp1154
(lp1155
g0
(g1146
g2
Ntp1156
Rp1157
(lp1158
F0.0
aF0.0
aF0.0
abag0
(g1146
g2
Ntp1159
Rp1160
(lp1161
F0.0
aF0.0
aF0.0
ababag0
(g1142
g2
Ntp1162
Rp1163
(lp1164
g0
(g1146
g2
Ntp1165
Rp1166
(lp1167
F0.0
aF0.0
aF0.0
abag0
(g1146
g2
Ntp1168
Rp1169
(lp1170
F0.0
aF0.0
aF0.0
ababag0
(g1142
g2
Ntp1171
Rp1172
(lp1173
g0
(g1146
g2
Ntp1174
Rp1175
(lp1176
F0.0
aF0.0
aF0.0
abag0
(g1146
g2
Ntp1177
Rp1178
(lp1179
F0.0
aF0.0
aF0.0
ababag0
(g1142
g2
Ntp1180
Rp1181
(lp1182
g0
(g1146
g2
Ntp1183
Rp1184
(lp1185
F0.0
aF0.0
aF0.0
abag0
(g1146
g2
Ntp1186
Rp1187
(lp1188
F0.0
aF0.0
aF0.0
ababag0
(g1142
g2
Ntp1189
Rp1190
(lp1191
g0
(g1146
g2
Ntp1192
Rp1193
(lp1194
F0.0
aF0.0
aF0.0
abag0
(g1146
g2
Ntp1195
Rp1196
(lp1197
F0.0
aF0.0
aF0.0
ababag0
(g1142
g2
Ntp1198
Rp1199
(lp1200
g0
(g1146
g2
Ntp1201
Rp1202
(lp1203
F0.0
aF0.0
aF0.0
abag0
(g1146
g2
Ntp1204
Rp1205
(lp1206
F0.0
aF0.0
aF0.0
ababag0
(g1142
g2
Ntp1207
Rp1208
(lp1209
g0
(g1146
g2
Ntp1210
Rp1211
(lp1212
F0.0
aF0.0
aF0.0
abag0
(g1146
g2
Ntp1213
Rp1214
(lp1215
F0.0
aF0.0
aF0.0
ababag0
(g1142
g2
Ntp1216
Rp1217
(lp1218
g0
(g1146
g2
Ntp1219
Rp1220
(lp1221
F0.0
aF0.0
aF0.0
abag0
(g1146
g2
Ntp1222
Rp1223
(lp1224
F0.0
aF0.0
aF0.0
ababag0
(g1142
g2
Ntp1225
Rp1226
(lp1227
g0
(g1146
g2
Ntp1228
Rp1229
(lp1230
F0.0
aF0.0
aF0.0
abag0
(g1146
g2
Ntp1231
Rp1232
(lp1233
F0.0
aF0.0
aF0.0
ababag0
(g1142
g2
Ntp1234
Rp1235
(lp1236
g0
(g1146
g2
Ntp1237
Rp1238
(lp1239
F0.0
aF0.0
aF0.0
abag0
(g1146
g2
Ntp1240
Rp1241
(lp1242
F0.0
aF0.0
aF0.0
ababag0
(g1142
g2
Ntp1243
Rp1244
(lp1245
g0
(g1146
g2
Ntp1246
Rp1247
(lp1248
F0.0
aF0.0
aF0.0
abag0
(g1146
g2
Ntp1249
Rp1250
(lp1251
F0.0
aF0.0
aF0.0
ababag0
(g1142
g2
Ntp1252
Rp1253
(lp1254
g0
(g1146
g2
Ntp1255
Rp1256
(lp1257
F0.0
aF0.0
aF0.0
abag0
(g1146
g2
Ntp1258
Rp1259
(lp1260
F0.0
aF0.0
aF0.0
ababag0
(g1142
g2
Ntp1261
Rp1262
(lp1263
g0
(g1146
g2
Ntp1264
Rp1265
(lp1266
F0.0
aF0.0
aF0.0
abag0
(g1146
g2
Ntp1267
Rp1268
(lp1269
F0.0
aF0.0
aF0.0
ababag0
(g1142
g2
Ntp1270
Rp1271
(lp1272
g0
(g1146
g2
Ntp1273
Rp1274
(lp1275
F0.0
aF0.0
aF0.0
abag0
(g1146
g2
Ntp1276
Rp1277
(lp1278
F0.0
aF0.0
aF0.0
ababag0
(g1142
g2
Ntp1279
Rp1280
(lp1281
g0
(g1146
g2
Ntp1282
Rp1283
(lp1284
F0.0
aF0.0
aF0.0
abag0
(g1146
g2
Ntp1285
Rp1286
(lp1287
F0.0
aF0.0
aF0.0
ababag0
(g1142
g2
Ntp1288
Rp1289
(lp1290
g0
(g1146
g2
Ntp1291
Rp1292
(lp1293
F0.0
aF0.0
aF0.0
abag0
(g1146
g2
Ntp1294
Rp1295
(lp1296
F0.0
aF0.0
aF0.0
ababag0
(g1142
g2
Ntp1297
Rp1298
(lp1299
g0
(g1146
g2
Ntp1300
Rp1301
(lp1302
F0.0
aF0.0
aF0.0
abag0
(g1146
g2
Ntp1303
Rp1304
(lp1305
F0.0
aF0.0
aF0.0
ababag0
(g1142
g2
Ntp1306
Rp1307
(lp1308
g0
(g1146
g2
Ntp1309
Rp1310
(lp1311
F0.0
aF0.0
aF0.0
abag0
(g1146
g2
Ntp1312
Rp1313
(lp1314
F0.0
aF0.0
aF0.0
ababag0
(g1142
g2
Ntp1315
Rp1316
(lp1317
g0
(g1146
g2
Ntp1318
Rp1319
(lp1320
F0.0
aF0.0
aF0.0
abag0
(g1146
g2
Ntp1321
Rp1322
(lp1323
F0.0
aF0.0
aF0.0
ababag0
(g1142
g2
Ntp1324
Rp1325
(lp1326
g0
(g1146
g2
Ntp1327
Rp1328
(lp1329
F0.0
aF0.0
aF0.0
abag0
(g1146
g2
Ntp1330
Rp1331
(lp1332
F0.0
aF0.0
aF0.0
ababag0
(g1142
g2
Ntp1333
Rp1334
(lp1335
g0
(g1146
g2
Ntp1336
Rp1337
(lp1338
F0.0
aF0.0
aF0.0
abag0
(g1146
g2
Ntp1339
Rp1340
(lp1341
F0.0
aF0.0
aF0.0
ababag0
(g1142
g2
Ntp1342
Rp1343
(lp1344
g0
(g1146
g2
Ntp1345
Rp1346
(lp1347
F0.0
aF0.0
aF0.0
abag0
(g1146
g2
Ntp1348
Rp1349
(lp1350
F0.0
aF0.0
aF0.0
ababag0
(g1142
g2
Ntp1351
Rp1352
(lp1353
g0
(g1146
g2
Ntp1354
Rp1355
(lp1356
F0.0
aF0.0
aF0.0
abag0
(g1146
g2
Ntp1357
Rp1358
(lp1359
F0.0
aF0.0
aF0.0
ababag0
(g1142
g2
Ntp1360
Rp1361
(lp1362
g0
(g1146
g2
Ntp1363
Rp1364
(lp1365
F0.0
aF0.0
aF0.0
abag0
(g1146
g2
Ntp1366
Rp1367
(lp1368
F0.0
aF0.0
aF0.0
ababag0
(g1142
g2
Ntp1369
Rp1370
(lp1371
g0
(g1146
g2
Ntp1372
Rp1373
(lp1374
F0.0
aF0.0
aF0.0
abag0
(g1146
g2
Ntp1375
Rp1376
(lp1377
F0.0
aF0.0
aF0.0
ababag0
(g1142
g2
Ntp1378
Rp1379
(lp1380
g0
(g1146
g2
Ntp1381
Rp1382
(lp1383
F0.0
aF0.0
aF0.0
abag0
(g1146
g2
Ntp1384
Rp1385
(lp1386
F0.0
aF0.0
aF0.0
ababag0
(g1142
g2
Ntp1387
Rp1388
(lp1389
g0
(g1146
g2
Ntp1390
Rp1391
(lp1392
F0.0
aF0.0
aF0.0
abag0
(g1146
g2
Ntp1393
Rp1394
(lp1395
F0.0
aF0.0
aF0.0
ababag0
(g1142
g2
Ntp1396
Rp1397
(lp1398
g0
(g1146
g2
Ntp1399
Rp1400
(lp1401
F0.0
aF0.0
aF0.0
abag0
(g1146
g2
Ntp1402
Rp1403
(lp1404
F0.0
aF0.0
aF0.0
ababag0
(g1142
g2
Ntp1405
Rp1406
(lp1407
g0
(g1146
g2
Ntp1408
Rp1409
(lp1410
F0.0
aF0.0
aF0.0
abag0
(g1146
g2
Ntp1411
Rp1412
(lp1413
F0.0
aF0.0
aF0.0
ababag0
(g1142
g2
Ntp1414
Rp1415
(lp1416
g0
(g1146
g2
Ntp1417
Rp1418
(lp1419
F0.0
aF0.0
aF0.0
abag0
(g1146
g2
Ntp1420
Rp1421
(lp1422
F0.0
aF0.0
aF0.0
ababag0
(g1142
g2
Ntp1423
Rp1424
(lp1425
g0
(g1146
g2
Ntp1426
Rp1427
(lp1428
F0.0
aF0.0
aF0.0
abag0
(g1146
g2
Ntp1429
Rp1430
(lp1431
F0.0
aF0.0
aF0.0
ababag0
(g1142
g2
Ntp1432
Rp1433
(lp1434
g0
(g1146
g2
Ntp1435
Rp1436
(lp1437
F0.0
aF0.0
aF0.0
abag0
(g1146
g2
Ntp1438
Rp1439
(lp1440
F0.0
aF0.0
aF0.0
ababag0
(g1142
g2
Ntp1441
Rp1442
(lp1443
g0
(g1146
g2
Ntp1444
Rp1445
(lp1446
F0.0
aF0.0
aF0.0
abag0
(g1146
g2
Ntp1447
Rp1448
(lp1449
F0.0
aF0.0
aF0.0
ababag0
(g1142
g2
Ntp1450
Rp1451
(lp1452
g0
(g1146
g2
Ntp1453
Rp1454
(lp1455
F0.0
aF0.0
aF0.0
abag0
(g1146
g2
Ntp1456
Rp1457
(lp1458
F0.0
aF0.0
aF0.0
ababag0
(g1142
g2
Ntp1459
Rp1460
(lp1461
g0
(g1146
g2
Ntp1462
Rp1463
(lp1464
F0.0
aF0.0
aF0.0
abag0
(g1146
g2
Ntp1465
Rp1466
(lp1467
F0.0
aF0.0
aF0.0
ababag0
(g1142
g2
Ntp1468
Rp1469
(lp1470
g0
(g1146
g2
Ntp1471
Rp1472
(lp1473
F0.0
aF0.0
aF0.0
abag0
(g1146
g2
Ntp1474
Rp1475
(lp1476
F0.0
aF0.0
aF0.0
ababag0
(g1142
g2
Ntp1477
Rp1478
(lp1479
g0
(g1146
g2
Ntp1480
Rp1481
(lp1482
F0.0
aF0.0
aF0.0
abag0
(g1146
g2
Ntp1483
Rp1484
(lp1485
F0.0
aF0.0
aF0.0
ababag0
(g1142
g2
Ntp1486
Rp1487
(lp1488
g0
(g1146
g2
Ntp1489
Rp1490
(lp1491
F0.0
aF0.0
aF0.0
abag0
(g1146
g2
Ntp1492
Rp1493
(lp1494
F0.0
aF0.0
aF0.0
ababag0
(g1142
g2
Ntp1495
Rp1496
(lp1497
g0
(g1146
g2
Ntp1498
Rp1499
(lp1500
F0.0
aF0.0
aF0.0
abag0
(g1146
g2
Ntp1501
Rp1502
(lp1503
F0.0
aF0.0
aF0.0
ababag0
(g1142
g2
Ntp1504
Rp1505
(lp1506
g0
(g1146
g2
Ntp1507
Rp1508
(lp1509
F0.0
aF0.0
aF0.0
abag0
(g1146
g2
Ntp1510
Rp1511
(lp1512
F0.0
aF0.0
aF0.0
ababag0
(g1142
g2
Ntp1513
Rp1514
(lp1515
g0
(g1146
g2
Ntp1516
Rp1517
(lp1518
F0.0
aF0.0
aF0.0
abag0
(g1146
g2
Ntp1519
Rp1520
(lp1521
F0.0
aF0.0
aF0.0
ababag0
(g1142
g2
Ntp1522
Rp1523
(lp1524
g0
(g1146
g2
Ntp1525
Rp1526
(lp1527
F0.0
aF0.0
aF0.0
abag0
(g1146
g2
Ntp1528
Rp1529
(lp1530
F0.0
aF0.0
aF0.0
ababag0
(g1142
g2
Ntp1531
Rp1532
(lp1533
g0
(g1146
g2
Ntp1534
Rp1535
(lp1536
F0.0
aF0.0
aF0.0
abag0
(g1146
g2
Ntp1537
Rp1538
(lp1539
F0.0
aF0.0
aF0.0
ababag0
(g1142
g2
Ntp1540
Rp1541
(lp1542
g0
(g1146
g2
Ntp1543
Rp1544
(lp1545
F0.0
aF0.0
aF0.0
abag0
(g1146
g2
Ntp1546
Rp1547
(lp1548
F0.0
aF0.0
aF0.0
ababag0
(g1142
g2
Ntp1549
Rp1550
(lp1551
g0
(g1146
g2
Ntp1552
Rp1553
(lp1554
F0.0
aF0.0
aF0.0
abag0
(g1146
g2
Ntp1555
Rp1556
(lp1557
F0.0
aF0.0
aF0.0
ababag0
(g1142
g2
Ntp1558
Rp1559
(lp1560
g0
(g1146
g2
Ntp1561
Rp1562
(lp1563
F0.0
aF0.0
aF0.0
abag0
(g1146
g2
Ntp1564
Rp1565
(lp1566
F0.0
aF0.0
aF0.0
ababag0
(g1142
g2
Ntp1567
Rp1568
(lp1569
g0
(g1146
g2
Ntp1570
Rp1571
(lp1572
F0.0
aF0.0
aF0.0
abag0
(g1146
g2
Ntp1573
Rp1574
(lp1575
F0.0
aF0.0
aF0.0
ababag0
(g1142
g2
Ntp1576
Rp1577
(lp1578
g0
(g1146
g2
Ntp1579
Rp1580
(lp1581
F0.0
aF0.0
aF0.0
abag0
(g1146
g2
Ntp1582
Rp1583
(lp1584
F0.0
aF0.0
aF0.0
ababag0
(g1142
g2
Ntp1585
Rp1586
(lp1587
g0
(g1146
g2
Ntp1588
Rp1589
(lp1590
F0.0
aF0.0
aF0.0
abag0
(g1146
g2
Ntp1591
Rp1592
(lp1593
F0.0
aF0.0
aF0.0
ababag0
(g1142
g2
Ntp1594
Rp1595
(lp1596
g0
(g1146
g2
Ntp1597
Rp1598
(lp1599
F0.0
aF0.0
aF0.0
abag0
(g1146
g2
Ntp1600
Rp1601
(lp1602
F0.0
aF0.0
aF0.0
ababag0
(g1142
g2
Ntp1603
Rp1604
(lp1605
g0
(g1146
g2
Ntp1606
Rp1607
(lp1608
F0.0
aF0.0
aF0.0
abag0
(g1146
g2
Ntp1609
Rp1610
(lp1611
F0.0
aF0.0
aF0.0
ababag0
(g1142
g2
Ntp1612
Rp1613
(lp1614
g0
(g1146
g2
Ntp1615
Rp1616
(lp1617
F0.0
aF0.0
aF0.0
abag0
(g1146
g2
Ntp1618
Rp1619
(lp1620
F0.0
aF0.0
aF0.0
ababag0
(g1142
g2
Ntp1621
Rp1622
(lp1623
g0
(g1146
g2
Ntp1624
Rp1625
(lp1626
F0.0
aF0.0
aF0.0
abag0
(g1146
g2
Ntp1627
Rp1628
(lp1629
F0.0
aF0.0
aF0.0
ababag0
(g1142
g2
Ntp1630
Rp1631
(lp1632
g0
(g1146
g2
Ntp1633
Rp1634
(lp1635
F0.0
aF0.0
aF0.0
abag0
(g1146
g2
Ntp1636
Rp1637
(lp1638
F0.0
aF0.0
aF0.0
ababag0
(g1142
g2
Ntp1639
Rp1640
(lp1641
g0
(g1146
g2
Ntp1642
Rp1643
(lp1644
F0.0
aF0.0
aF0.0
abag0
(g1146
g2
Ntp1645
Rp1646
(lp1647
F0.0
aF0.0
aF0.0
ababag0
(g1142
g2
Ntp1648
Rp1649
(lp1650
g0
(g1146
g2
Ntp1651
Rp1652
(lp1653
F0.0
aF0.0
aF0.0
abag0
(g1146
g2
Ntp1654
Rp1655
(lp1656
F0.0
aF0.0
aF0.0
ababag0
(g1142
g2
Ntp1657
Rp1658
(lp1659
g0
(g1146
g2
Ntp1660
Rp1661
(lp1662
F0.0
aF0.0
aF0.0
abag0
(g1146
g2
Ntp1663
Rp1664
(lp1665
F0.0
aF0.0
aF0.0
ababag0
(g1142
g2
Ntp1666
Rp1667
(lp1668
g0
(g1146
g2
Ntp1669
Rp1670
(lp1671
F0.0
aF0.0
aF0.0
abag0
(g1146
g2
Ntp1672
Rp1673
(lp1674
F0.0
aF0.0
aF0.0
ababag0
(g1142
g2
Ntp1675
Rp1676
(lp1677
g0
(g1146
g2
Ntp1678
Rp1679
(lp1680
F0.0
aF0.0
aF0.0
abag0
(g1146
g2
Ntp1681
Rp1682
(lp1683
F0.0
aF0.0
aF0.0
ababag0
(g1142
g2
Ntp1684
Rp1685
(lp1686
g0
(g1146
g2
Ntp1687
Rp1688
(lp1689
F0.0
aF0.0
aF0.0
abag0
(g1146
g2
Ntp1690
Rp1691
(lp1692
F0.0
aF0.0
aF0.0
ababag0
(g1142
g2
Ntp1693
Rp1694
(lp1695
g0
(g1146
g2
Ntp1696
Rp1697
(lp1698
F0.0
aF0.0
aF0.0
abag0
(g1146
g2
Ntp1699
Rp1700
(lp1701
F0.0
aF0.0
aF0.0
ababag0
(g1142
g2
Ntp1702
Rp1703
(lp1704
g0
(g1146
g2
Ntp1705
Rp1706
(lp1707
F0.0
aF0.0
aF0.0
abag0
(g1146
g2
Ntp1708
Rp1709
(lp1710
F0.0
aF0.0
aF0.0
ababag0
(g1142
g2
Ntp1711
Rp1712
(lp1713
g0
(g1146
g2
Ntp1714
Rp1715
(lp1716
F0.0
aF0.0
aF0.0
abag0
(g1146
g2
Ntp1717
Rp1718
(lp1719
F0.0
aF0.0
aF0.0
ababag0
(g1142
g2
Ntp1720
Rp1721
(lp1722
g0
(g1146
g2
Ntp1723
Rp1724
(lp1725
F0.0
aF0.0
aF0.0
abag0
(g1146
g2
Ntp1726
Rp1727
(lp1728
F0.0
aF0.0
aF0.0
ababag0
(g1142
g2
Ntp1729
Rp1730
(lp1731
g0
(g1146
g2
Ntp1732
Rp1733
(lp1734
F0.0
aF0.0
aF0.0
abag0
(g1146
g2
Ntp1735
Rp1736
(lp1737
F0.0
aF0.0
aF0.0
ababag0
(g1142
g2
Ntp1738
Rp1739
(lp1740
g0
(g1146
g2
Ntp1741
Rp1742
(lp1743
F0.0
aF0.0
aF0.0
abag0
(g1146
g2
Ntp1744
Rp1745
(lp1746
F0.0
aF0.0
aF0.0
ababag0
(g1142
g2
Ntp1747
Rp1748
(lp1749
g0
(g1146
g2
Ntp1750
Rp1751
(lp1752
F0.0
aF0.0
aF0.0
abag0
(g1146
g2
Ntp1753
Rp1754
(lp1755
F0.0
aF0.0
aF0.0
ababag0
(g1142
g2
Ntp1756
Rp1757
(lp1758
g0
(g1146
g2
Ntp1759
Rp1760
(lp1761
F0.0
aF0.0
aF0.0
abag0
(g1146
g2
Ntp1762
Rp1763
(lp1764
F0.0
aF0.0
aF0.0
ababag0
(g1142
g2
Ntp1765
Rp1766
(lp1767
g0
(g1146
g2
Ntp1768
Rp1769
(lp1770
F0.0
aF0.0
aF0.0
abag0
(g1146
g2
Ntp1771
Rp1772
(lp1773
F0.0
aF0.0
aF0.0
ababag0
(g1142
g2
Ntp1774
Rp1775
(lp1776
g0
(g1146
g2
Ntp1777
Rp1778
(lp1779
F0.0
aF0.0
aF0.0
abag0
(g1146
g2
Ntp1780
Rp1781
(lp1782
F0.0
aF0.0
aF0.0
ababag0
(g1142
g2
Ntp1783
Rp1784
(lp1785
g0
(g1146
g2
Ntp1786
Rp1787
(lp1788
F0.0
aF0.0
aF0.0
abag0
(g1146
g2
Ntp1789
Rp1790
(lp1791
F0.0
aF0.0
aF0.0
ababag0
(g1142
g2
Ntp1792
Rp1793
(lp1794
g0
(g1146
g2
Ntp1795
Rp1796
(lp1797
F0.0
aF0.0
aF0.0
abag0
(g1146
g2
Ntp1798
Rp1799
(lp1800
F0.0
aF0.0
aF0.0
ababag0
(g1142
g2
Ntp1801
Rp1802
(lp1803
g0
(g1146
g2
Ntp1804
Rp1805
(lp1806
F0.0
aF0.0
aF0.0
abag0
(g1146
g2
Ntp1807
Rp1808
(lp1809
F0.0
aF0.0
aF0.0
ababag0
(g1142
g2
Ntp1810
Rp1811
(lp1812
g0
(g1146
g2
Ntp1813
Rp1814
(lp1815
F0.0
aF0.0
aF0.0
abag0
(g1146
g2
Ntp1816
Rp1817
(lp1818
F0.0
aF0.0
aF0.0
ababag0
(g1142
g2
Ntp1819
Rp1820
(lp1821
g0
(g1146
g2
Ntp1822
Rp1823
(lp1824
F0.0
aF0.0
aF0.0
abag0
(g1146
g2
Ntp1825
Rp1826
(lp1827
F0.0
aF0.0
aF0.0
ababag0
(g1142
g2
Ntp1828
Rp1829
(lp1830
g0
(g1146
g2
Ntp1831
Rp1832
(lp1833
F0.0
aF0.0
aF0.0
abag0
(g1146
g2
Ntp1834
Rp1835
(lp1836
F0.0
aF0.0
aF0.0
ababag0
(g1142
g2
Ntp1837
Rp1838
(lp1839
g0
(g1146
g2
Ntp1840
Rp1841
(lp1842
F0.0
aF0.0
aF0.0
abag0
(g1146
g2
Ntp1843
Rp1844
(lp1845
F0.0
aF0.0
aF0.0
ababag0
(g1142
g2
Ntp1846
Rp1847
(lp1848
g0
(g1146
g2
Ntp1849
Rp1850
(lp1851
F0.0
aF0.0
aF0.0
abag0
(g1146
g2
Ntp1852
Rp1853
(lp1854
F0.0
aF0.0
aF0.0
ababag0
(g1142
g2
Ntp1855
Rp1856
(lp1857
g0
(g1146
g2
Ntp1858
Rp1859
(lp1860
F0.0
aF0.0
aF0.0
abag0
(g1146
g2
Ntp1861
Rp1862
(lp1863
F0.0
aF0.0
aF0.0
ababag0
(g1142
g2
Ntp1864
Rp1865
(lp1866
g0
(g1146
g2
Ntp1867
Rp1868
(lp1869
F0.0
aF0.0
aF0.0
abag0
(g1146
g2
Ntp1870
Rp1871
(lp1872
F0.0
aF0.0
aF0.0
ababag0
(g1142
g2
Ntp1873
Rp1874
(lp1875
g0
(g1146
g2
Ntp1876
Rp1877
(lp1878
F0.0
aF0.0
aF0.0
abag0
(g1146
g2
Ntp1879
Rp1880
(lp1881
F0.0
aF0.0
aF0.0
ababag0
(g1142
g2
Ntp1882
Rp1883
(lp1884
g0
(g1146
g2
Ntp1885
Rp1886
(lp1887
F0.0
aF0.0
aF0.0
abag0
(g1146
g2
Ntp1888
Rp1889
(lp1890
F0.0
aF0.0
aF0.0
ababag0
(g1142
g2
Ntp1891
Rp1892
(lp1893
g0
(g1146
g2
Ntp1894
Rp1895
(lp1896
F0.0
aF0.0
aF0.0
abag0
(g1146
g2
Ntp1897
Rp1898
(lp1899
F0.0
aF0.0
aF0.0
ababag0
(g1142
g2
Ntp1900
Rp1901
(lp1902
g0
(g1146
g2
Ntp1903
Rp1904
(lp1905
F0.0
aF0.0
aF0.0
abag0
(g1146
g2
Ntp1906
Rp1907
(lp1908
F0.0
aF0.0
aF0.0
ababag0
(g1142
g2
Ntp1909
Rp1910
(lp1911
g0
(g1146
g2
Ntp1912
Rp1913
(lp1914
F0.0
aF0.0
aF0.0
abag0
(g1146
g2
Ntp1915
Rp1916
(lp1917
F0.0
aF0.0
aF0.0
ababag0
(g1142
g2
Ntp1918
Rp1919
(lp1920
g0
(g1146
g2
Ntp1921
Rp1922
(lp1923
F0.0
aF0.0
aF0.0
abag0
(g1146
g2
Ntp1924
Rp1925
(lp1926
F0.0
aF0.0
aF0.0
ababag0
(g1142
g2
Ntp1927
Rp1928
(lp1929
g0
(g1146
g2
Ntp1930
Rp1931
(lp1932
F0.0
aF0.0
aF0.0
abag0
(g1146
g2
Ntp1933
Rp1934
(lp1935
F0.0
aF0.0
aF0.0
ababag0
(g1142
g2
Ntp1936
Rp1937
(lp1938
g0
(g1146
g2
Ntp1939
Rp1940
(lp1941
F0.0
aF0.0
aF0.0
abag0
(g1146
g2
Ntp1942
Rp1943
(lp1944
F0.0
aF0.0
aF0.0
ababag0
(g1142
g2
Ntp1945
Rp1946
(lp1947
g0
(g1146
g2
Ntp1948
Rp1949
(lp1950
F0.0
aF0.0
aF0.0
abag0
(g1146
g2
Ntp1951
Rp1952
(lp1953
F0.0
aF0.0
aF0.0
ababag0
(g1142
g2
Ntp1954
Rp1955
(lp1956
g0
(g1146
g2
Ntp1957
Rp1958
(lp1959
F0.0
aF0.0
aF0.0
abag0
(g1146
g2
Ntp1960
Rp1961
(lp1962
F0.0
aF0.0
aF0.0
ababag0
(g1142
g2
Ntp1963
Rp1964
(lp1965
g0
(g1146
g2
Ntp1966
Rp1967
(lp1968
F0.0
aF0.0
aF0.0
abag0
(g1146
g2
Ntp1969
Rp1970
(lp1971
F0.0
aF0.0
aF0.0
ababag0
(g1142
g2
Ntp1972
Rp1973
(lp1974
g0
(g1146
g2
Ntp1975
Rp1976
(lp1977
F0.0
aF0.0
aF0.0
abag0
(g1146
g2
Ntp1978
Rp1979
(lp1980
F0.0
aF0.0
aF0.0
ababag0
(g1142
g2
Ntp1981
Rp1982
(lp1983
g0
(g1146
g2
Ntp1984
Rp1985
(lp1986
F0.0
aF0.0
aF0.0
abag0
(g1146
g2
Ntp1987
Rp1988
(lp1989
F0.0
aF0.0
aF0.0
ababag0
(g1142
g2
Ntp1990
Rp1991
(lp1992
g0
(g1146
g2
Ntp1993
Rp1994
(lp1995
F0.0
aF0.0
aF0.0
abag0
(g1146
g2
Ntp1996
Rp1997
(lp1998
F0.0
aF0.0
aF0.0
ababag0
(g1142
g2
Ntp1999
Rp2000
(lp2001
g0
(g1146
g2
Ntp2002
Rp2003
(lp2004
F0.0
aF0.0
aF0.0
abag0
(g1146
g2
Ntp2005
Rp2006
(lp2007
F0.0
aF0.0
aF0.0
ababag0
(g1142
g2
Ntp2008
Rp2009
(lp2010
g0
(g1146
g2
Ntp2011
Rp2012
(lp2013
F0.0
aF0.0
aF0.0
abag0
(g1146
g2
Ntp2014
Rp2015
(lp2016
F0.0
aF0.0
aF0.0
ababag0
(g1142
g2
Ntp2017
Rp2018
(lp2019
g0
(g1146
g2
Ntp2020
Rp2021
(lp2022
F0.0
aF0.0
aF0.0
abag0
(g1146
g2
Ntp2023
Rp2024
(lp2025
F0.0
aF0.0
aF0.0
ababag0
(g1142
g2
Ntp2026
Rp2027
(lp2028
g0
(g1146
g2
Ntp2029
Rp2030
(lp2031
F0.0
aF0.0
aF0.0
abag0
(g1146
g2
Ntp2032
Rp2033
(lp2034
F0.0
aF0.0
aF0.0
ababag0
(g1142
g2
Ntp2035
Rp2036
(lp2037
g0
(g1146
g2
Ntp2038
Rp2039
(lp2040
F0.0
aF0.0
aF0.0
abag0
(g1146
g2
Ntp2041
Rp2042
(lp2043
F0.0
aF0.0
aF0.0
ababag0
(g1142
g2
Ntp2044
Rp2045
(lp2046
g0
(g1146
g2
Ntp2047
Rp2048
(lp2049
F0.0
aF0.0
aF0.0
abag0
(g1146
g2
Ntp2050
Rp2051
(lp2052
F0.0
aF0.0
aF0.0
ababag0
(g1142
g2
Ntp2053
Rp2054
(lp2055
g0
(g1146
g2
Ntp2056
Rp2057
(lp2058
F0.0
aF0.0
aF0.0
abag0
(g1146
g2
Ntp2059
Rp2060
(lp2061
F0.0
aF0.0
aF0.0
ababag0
(g1142
g2
Ntp2062
Rp2063
(lp2064
g0
(g1146
g2
Ntp2065
Rp2066
(lp2067
F0.0
aF0.0
aF0.0
abag0
(g1146
g2
Ntp2068
Rp2069
(lp2070
F0.0
aF0.0
aF0.0
ababag0
(g1142
g2
Ntp2071
Rp2072
(lp2073
g0
(g1146
g2
Ntp2074
Rp2075
(lp2076
F0.0
aF0.0
aF0.0
abag0
(g1146
g2
Ntp2077
Rp2078
(lp2079
F0.0
aF0.0
aF0.0
ababag0
(g1142
g2
Ntp2080
Rp2081
(lp2082
g0
(g1146
g2
Ntp2083
Rp2084
(lp2085
F0.0
aF0.0
aF0.0
abag0
(g1146
g2
Ntp2086
Rp2087
(lp2088
F0.0
aF0.0
aF0.0
ababag0
(g1142
g2
Ntp2089
Rp2090
(lp2091
g0
(g1146
g2
Ntp2092
Rp2093
(lp2094
F0.0
aF0.0
aF0.0
abag0
(g1146
g2
Ntp2095
Rp2096
(lp2097
F0.0
aF0.0
aF0.0
ababag0
(g1142
g2
Ntp2098
Rp2099
(lp2100
g0
(g1146
g2
Ntp2101
Rp2102
(lp2103
F0.0
aF0.0
aF0.0
abag0
(g1146
g2
Ntp2104
Rp2105
(lp2106
F0.0
aF0.0
aF0.0
ababag0
(g1142
g2
Ntp2107
Rp2108
(lp2109
g0
(g1146
g2
Ntp2110
Rp2111
(lp2112
F0.0
aF0.0
aF0.0
abag0
(g1146
g2
Ntp2113
Rp2114
(lp2115
F0.0
aF0.0
aF0.0
ababag0
(g1142
g2
Ntp2116
Rp2117
(lp2118
g0
(g1146
g2
Ntp2119
Rp2120
(lp2121
F0.0
aF0.0
aF0.0
abag0
(g1146
g2
Ntp2122
Rp2123
(lp2124
F0.0
aF0.0
aF0.0
ababag0
(g1142
g2
Ntp2125
Rp2126
(lp2127
g0
(g1146
g2
Ntp2128
Rp2129
(lp2130
F0.0
aF0.0
aF0.0
abag0
(g1146
g2
Ntp2131
Rp2132
(lp2133
F0.0
aF0.0
aF0.0
ababag0
(g1142
g2
Ntp2134
Rp2135
(lp2136
g0
(g1146
g2
Ntp2137
Rp2138
(lp2139
F0.0
aF0.0
aF0.0
abag0
(g1146
g2
Ntp2140
Rp2141
(lp2142
F0.0
aF0.0
aF0.0
ababag0
(g1142
g2
Ntp2143
Rp2144
(lp2145
g0
(g1146
g2
Ntp2146
Rp2147
(lp2148
F0.0
aF0.0
aF0.0
abag0
(g1146
g2
Ntp2149
Rp2150
(lp2151
F0.0
aF0.0
aF0.0
ababag0
(g1142
g2
Ntp2152
Rp2153
(lp2154
g0
(g1146
g2
Ntp2155
Rp2156
(lp2157
F-0.00015249980637340398
aF-0.0003112350571105891
aF6.615307210858499e-05
abag0
(g1146
g2
Ntp2158
Rp2159
(lp2160
F-0.0029732439396735195
aF0.0016768686516948099
aF0.0001125352816606179
ababaab.